target datalayout = "e-m:e-p270:32:32-p271:32:32-p272:64:64-i64:64-i128:128-f80:128-n8:16:32:64-S128"
target triple = "x86_64-pc-linux-gnu"

%struct.PJconsts = type { ptr, ptr, ptr, ptr, ptr, ptr, ptr, ptr, ptr, ptr, ptr, ptr, i32, ptr, ptr, ptr, ptr, ptr, ptr, ptr, ptr, double, double, double, double, double, double, double, double, double, double, double, double, double, double, double, double, double, double, double, double, double, double, i32, i32, i32, i32, i32, i32, i32, i32, i32, i32, i32, ptr, ptr, ptr, ptr, ptr, ptr, double, double, double, double, double, double, double, double, double, double, double, i32, [7 x double], i32, ptr, ptr, double, double, i32, [4 x i8], %"class.std::shared_ptr", i8, double, i8, %"class.std::__cxx11::basic_string", %"class.std::__cxx11::basic_string", %"class.std::__cxx11::basic_string", i8, %"class.std::vector", i32, %"class.std::vector.3", i32, i8, i8, i8, ptr }
%"class.std::shared_ptr" = type { %"class.std::__shared_ptr" }
%"class.std::__shared_ptr" = type { ptr, %"class.std::__shared_count" }
%"class.std::__shared_count" = type { ptr }
%"class.std::__cxx11::basic_string" = type { %"struct.std::__cxx11::basic_string<char>::_Alloc_hider", i64, %union.anon }
%"struct.std::__cxx11::basic_string<char>::_Alloc_hider" = type { ptr }
%union.anon = type { i64, [8 x i8] }
%"class.std::vector" = type { %"struct.std::_Vector_base" }
%"struct.std::_Vector_base" = type { %"struct.std::_Vector_base<osgeo::proj::operation::GridDescription, std::allocator<osgeo::proj::operation::GridDescription>>::_Vector_impl" }
%"struct.std::_Vector_base<osgeo::proj::operation::GridDescription, std::allocator<osgeo::proj::operation::GridDescription>>::_Vector_impl" = type { %"struct.std::_Vector_base<osgeo::proj::operation::GridDescription, std::allocator<osgeo::proj::operation::GridDescription>>::_Vector_impl_data" }
%"struct.std::_Vector_base<osgeo::proj::operation::GridDescription, std::allocator<osgeo::proj::operation::GridDescription>>::_Vector_impl_data" = type { ptr, ptr, ptr }
%"class.std::vector.3" = type { %"struct.std::_Vector_base.4" }
%"struct.std::_Vector_base.4" = type { %"struct.std::_Vector_base<PJCoordOperation, std::allocator<PJCoordOperation>>::_Vector_impl" }
%"struct.std::_Vector_base<PJCoordOperation, std::allocator<PJCoordOperation>>::_Vector_impl" = type { %"struct.std::_Vector_base<PJCoordOperation, std::allocator<PJCoordOperation>>::_Vector_impl_data" }
%"struct.std::_Vector_base<PJCoordOperation, std::allocator<PJCoordOperation>>::_Vector_impl_data" = type { ptr, ptr, ptr }
%union.PROJVALUE = type { double }
%"struct.(anonymous namespace)::pj_opaque" = type { double, double, double, double, double, double, double, double }

@.str.1 = private unnamed_addr constant [58 x i8] c"Invalid value for lat_0: lat_0 should be different from 0\00", align 1
@.str.2 = private unnamed_addr constant [5 x i8] c"razi\00", align 1

; Function Attrs: mustprogress uwtable
define hidden noundef ptr @_Z34pj_projection_specific_setup_labrdP8PJconsts(ptr noundef %0) #0 {
  %2 = alloca ptr, align 8
  %3 = alloca ptr, align 8
  %4 = alloca double, align 8
  %5 = alloca double, align 8
  %6 = alloca double, align 8
  %7 = alloca double, align 8
  %8 = alloca double, align 8
  %9 = alloca ptr, align 8
  %10 = alloca i32, align 4
  %11 = alloca %union.PROJVALUE, align 8
  store ptr %0, ptr %3, align 8, !tbaa !3
  call void @llvm.lifetime.start.p0(i64 8, ptr %4) #8
  call void @llvm.lifetime.start.p0(i64 8, ptr %5) #8
  call void @llvm.lifetime.start.p0(i64 8, ptr %6) #8
  call void @llvm.lifetime.start.p0(i64 8, ptr %7) #8
  call void @llvm.lifetime.start.p0(i64 8, ptr %8) #8
  call void @llvm.lifetime.start.p0(i64 8, ptr %9) #8
  %12 = call noalias ptr @calloc(i64 noundef 1, i64 noundef 64) #9
  store ptr %12, ptr %9, align 8, !tbaa !41
  %13 = load ptr, ptr %9, align 8, !tbaa !41
  %14 = icmp eq ptr null, %13
  br i1 %14, label %15, label %18

15:                                               ; preds = %1
  %16 = load ptr, ptr %3, align 8, !tbaa !3
  %17 = call noundef ptr @_Z21pj_default_destructorP8PJconstsi(ptr noundef %16, i32 noundef 4096)
  store ptr %17, ptr %2, align 8
  store i32 1, ptr %10, align 4
  br label %194

18:                                               ; preds = %1
  %19 = load ptr, ptr %9, align 8, !tbaa !41
  %20 = load ptr, ptr %3, align 8, !tbaa !3
  %21 = getelementptr inbounds nuw %struct.PJconsts, ptr %20, i32 0, i32 11
  store ptr %19, ptr %21, align 8, !tbaa !43
  %22 = load ptr, ptr %3, align 8, !tbaa !3
  %23 = getelementptr inbounds nuw %struct.PJconsts, ptr %22, i32 0, i32 61
  %24 = load double, ptr %23, align 8, !tbaa !44
  %25 = fcmp oeq double %24, 0.000000e+00
  br i1 %25, label %26, label %30

26:                                               ; preds = %18
  %27 = load ptr, ptr %3, align 8, !tbaa !3
  call void (ptr, ptr, ...) @_Z14proj_log_errorPK8PJconstsPKcz(ptr noundef %27, ptr noundef @.str.1)
  %28 = load ptr, ptr %3, align 8, !tbaa !3
  %29 = call noundef ptr @_Z21pj_default_destructorP8PJconstsi(ptr noundef %28, i32 noundef 1027)
  store ptr %29, ptr %2, align 8
  store i32 1, ptr %10, align 4
  br label %194

30:                                               ; preds = %18
  call void @llvm.lifetime.start.p0(i64 8, ptr %11) #8
  %31 = load ptr, ptr %3, align 8, !tbaa !3
  %32 = getelementptr inbounds nuw %struct.PJconsts, ptr %31, i32 0, i32 0
  %33 = load ptr, ptr %32, align 8, !tbaa !45
  %34 = load ptr, ptr %3, align 8, !tbaa !3
  %35 = getelementptr inbounds nuw %struct.PJconsts, ptr %34, i32 0, i32 3
  %36 = load ptr, ptr %35, align 8, !tbaa !46
  %37 = call i64 @_Z8pj_paramP6pj_ctxP8ARG_listPKc(ptr noundef %33, ptr noundef %36, ptr noundef @.str.2)
  %38 = getelementptr inbounds nuw %union.PROJVALUE, ptr %11, i32 0, i32 0
  store i64 %37, ptr %38, align 8
  %39 = load double, ptr %11, align 8, !tbaa !47
  store double %39, ptr %4, align 8, !tbaa !48
  call void @llvm.lifetime.end.p0(i64 8, ptr %11) #8
  %40 = load ptr, ptr %3, align 8, !tbaa !3
  %41 = getelementptr inbounds nuw %struct.PJconsts, ptr %40, i32 0, i32 61
  %42 = load double, ptr %41, align 8, !tbaa !44
  %43 = call double @sin(double noundef %42) #8, !tbaa !49
  store double %43, ptr %5, align 8, !tbaa !48
  %44 = load ptr, ptr %3, align 8, !tbaa !3
  %45 = getelementptr inbounds nuw %struct.PJconsts, ptr %44, i32 0, i32 27
  %46 = load double, ptr %45, align 8, !tbaa !50
  %47 = load double, ptr %5, align 8, !tbaa !48
  %48 = fmul double %46, %47
  %49 = load double, ptr %5, align 8, !tbaa !48
  %50 = fneg double %48
  %51 = call double @llvm.fmuladd.f64(double %50, double %49, double 1.000000e+00)
  store double %51, ptr %8, align 8, !tbaa !48
  %52 = load double, ptr %8, align 8, !tbaa !48
  %53 = call double @sqrt(double noundef %52) #8, !tbaa !49
  %54 = fdiv double 1.000000e+00, %53
  store double %54, ptr %7, align 8, !tbaa !48
  %55 = load ptr, ptr %3, align 8, !tbaa !3
  %56 = getelementptr inbounds nuw %struct.PJconsts, ptr %55, i32 0, i32 32
  %57 = load double, ptr %56, align 8, !tbaa !51
  %58 = load double, ptr %7, align 8, !tbaa !48
  %59 = fmul double %57, %58
  %60 = load double, ptr %8, align 8, !tbaa !48
  %61 = fdiv double %59, %60
  store double %61, ptr %6, align 8, !tbaa !48
  %62 = load ptr, ptr %3, align 8, !tbaa !3
  %63 = getelementptr inbounds nuw %struct.PJconsts, ptr %62, i32 0, i32 66
  %64 = load double, ptr %63, align 8, !tbaa !52
  %65 = load double, ptr %7, align 8, !tbaa !48
  %66 = load double, ptr %6, align 8, !tbaa !48
  %67 = fmul double %65, %66
  %68 = call double @sqrt(double noundef %67) #8, !tbaa !49
  %69 = fmul double %64, %68
  %70 = load ptr, ptr %9, align 8, !tbaa !41
  %71 = getelementptr inbounds nuw %"struct.(anonymous namespace)::pj_opaque", ptr %70, i32 0, i32 0
  store double %69, ptr %71, align 8, !tbaa !53
  %72 = load double, ptr %6, align 8, !tbaa !48
  %73 = load double, ptr %7, align 8, !tbaa !48
  %74 = fdiv double %72, %73
  %75 = call double @sqrt(double noundef %74) #8, !tbaa !49
  %76 = load ptr, ptr %3, align 8, !tbaa !3
  %77 = getelementptr inbounds nuw %struct.PJconsts, ptr %76, i32 0, i32 61
  %78 = load double, ptr %77, align 8, !tbaa !44
  %79 = call double @tan(double noundef %78) #8, !tbaa !49
  %80 = fmul double %75, %79
  %81 = call double @atan(double noundef %80) #8, !tbaa !49
  %82 = load ptr, ptr %9, align 8, !tbaa !41
  %83 = getelementptr inbounds nuw %"struct.(anonymous namespace)::pj_opaque", ptr %82, i32 0, i32 1
  store double %81, ptr %83, align 8, !tbaa !55
  %84 = load double, ptr %5, align 8, !tbaa !48
  %85 = load ptr, ptr %9, align 8, !tbaa !41
  %86 = getelementptr inbounds nuw %"struct.(anonymous namespace)::pj_opaque", ptr %85, i32 0, i32 1
  %87 = load double, ptr %86, align 8, !tbaa !55
  %88 = call double @sin(double noundef %87) #8, !tbaa !49
  %89 = fdiv double %84, %88
  %90 = load ptr, ptr %9, align 8, !tbaa !41
  %91 = getelementptr inbounds nuw %"struct.(anonymous namespace)::pj_opaque", ptr %90, i32 0, i32 2
  store double %89, ptr %91, align 8, !tbaa !56
  %92 = load ptr, ptr %3, align 8, !tbaa !3
  %93 = getelementptr inbounds nuw %struct.PJconsts, ptr %92, i32 0, i32 26
  %94 = load double, ptr %93, align 8, !tbaa !57
  %95 = load double, ptr %5, align 8, !tbaa !48
  %96 = fmul double %94, %95
  store double %96, ptr %8, align 8, !tbaa !48
  %97 = load ptr, ptr %3, align 8, !tbaa !3
  %98 = getelementptr inbounds nuw %struct.PJconsts, ptr %97, i32 0, i32 26
  %99 = load double, ptr %98, align 8, !tbaa !57
  %100 = fmul double 5.000000e-01, %99
  %101 = load ptr, ptr %9, align 8, !tbaa !41
  %102 = getelementptr inbounds nuw %"struct.(anonymous namespace)::pj_opaque", ptr %101, i32 0, i32 2
  %103 = load double, ptr %102, align 8, !tbaa !56
  %104 = fmul double %100, %103
  %105 = load double, ptr %8, align 8, !tbaa !48
  %106 = fadd double 1.000000e+00, %105
  %107 = load double, ptr %8, align 8, !tbaa !48
  %108 = fsub double 1.000000e+00, %107
  %109 = fdiv double %106, %108
  %110 = call double @log(double noundef %109) #8, !tbaa !49
  %111 = load ptr, ptr %9, align 8, !tbaa !41
  %112 = getelementptr inbounds nuw %"struct.(anonymous namespace)::pj_opaque", ptr %111, i32 0, i32 2
  %113 = load double, ptr %112, align 8, !tbaa !56
  %114 = fneg double %113
  %115 = load ptr, ptr %3, align 8, !tbaa !3
  %116 = getelementptr inbounds nuw %struct.PJconsts, ptr %115, i32 0, i32 61
  %117 = load double, ptr %116, align 8, !tbaa !44
  %118 = call double @llvm.fmuladd.f64(double 5.000000e-01, double %117, double 0x3FE921FB54442D18)
  %119 = call double @tan(double noundef %118) #8, !tbaa !49
  %120 = call double @log(double noundef %119) #8, !tbaa !49
  %121 = fmul double %114, %120
  %122 = call double @llvm.fmuladd.f64(double %104, double %110, double %121)
  %123 = load ptr, ptr %9, align 8, !tbaa !41
  %124 = getelementptr inbounds nuw %"struct.(anonymous namespace)::pj_opaque", ptr %123, i32 0, i32 1
  %125 = load double, ptr %124, align 8, !tbaa !55
  %126 = call double @llvm.fmuladd.f64(double 5.000000e-01, double %125, double 0x3FE921FB54442D18)
  %127 = call double @tan(double noundef %126) #8, !tbaa !49
  %128 = call double @log(double noundef %127) #8, !tbaa !49
  %129 = fadd double %122, %128
  %130 = load ptr, ptr %9, align 8, !tbaa !41
  %131 = getelementptr inbounds nuw %"struct.(anonymous namespace)::pj_opaque", ptr %130, i32 0, i32 3
  store double %129, ptr %131, align 8, !tbaa !58
  %132 = load double, ptr %4, align 8, !tbaa !48
  %133 = load double, ptr %4, align 8, !tbaa !48
  %134 = fadd double %132, %133
  store double %134, ptr %8, align 8, !tbaa !48
  %135 = load ptr, ptr %9, align 8, !tbaa !41
  %136 = getelementptr inbounds nuw %"struct.(anonymous namespace)::pj_opaque", ptr %135, i32 0, i32 0
  %137 = load double, ptr %136, align 8, !tbaa !53
  %138 = fmul double 1.200000e+01, %137
  %139 = load ptr, ptr %9, align 8, !tbaa !41
  %140 = getelementptr inbounds nuw %"struct.(anonymous namespace)::pj_opaque", ptr %139, i32 0, i32 0
  %141 = load double, ptr %140, align 8, !tbaa !53
  %142 = fmul double %138, %141
  %143 = fdiv double 1.000000e+00, %142
  %144 = load ptr, ptr %9, align 8, !tbaa !41
  %145 = getelementptr inbounds nuw %"struct.(anonymous namespace)::pj_opaque", ptr %144, i32 0, i32 5
  store double %143, ptr %145, align 8, !tbaa !59
  %146 = load double, ptr %8, align 8, !tbaa !48
  %147 = call double @cos(double noundef %146) #8, !tbaa !49
  %148 = fsub double 1.000000e+00, %147
  %149 = load ptr, ptr %9, align 8, !tbaa !41
  %150 = getelementptr inbounds nuw %"struct.(anonymous namespace)::pj_opaque", ptr %149, i32 0, i32 5
  %151 = load double, ptr %150, align 8, !tbaa !59
  %152 = fmul double %148, %151
  %153 = load ptr, ptr %9, align 8, !tbaa !41
  %154 = getelementptr inbounds nuw %"struct.(anonymous namespace)::pj_opaque", ptr %153, i32 0, i32 4
  store double %152, ptr %154, align 8, !tbaa !60
  %155 = load double, ptr %8, align 8, !tbaa !48
  %156 = call double @sin(double noundef %155) #8, !tbaa !49
  %157 = load ptr, ptr %9, align 8, !tbaa !41
  %158 = getelementptr inbounds nuw %"struct.(anonymous namespace)::pj_opaque", ptr %157, i32 0, i32 5
  %159 = load double, ptr %158, align 8, !tbaa !59
  %160 = fmul double %159, %156
  store double %160, ptr %158, align 8, !tbaa !59
  %161 = load ptr, ptr %9, align 8, !tbaa !41
  %162 = getelementptr inbounds nuw %"struct.(anonymous namespace)::pj_opaque", ptr %161, i32 0, i32 4
  %163 = load double, ptr %162, align 8, !tbaa !60
  %164 = load ptr, ptr %9, align 8, !tbaa !41
  %165 = getelementptr inbounds nuw %"struct.(anonymous namespace)::pj_opaque", ptr %164, i32 0, i32 4
  %166 = load double, ptr %165, align 8, !tbaa !60
  %167 = load ptr, ptr %9, align 8, !tbaa !41
  %168 = getelementptr inbounds nuw %"struct.(anonymous namespace)::pj_opaque", ptr %167, i32 0, i32 5
  %169 = load double, ptr %168, align 8, !tbaa !59
  %170 = load ptr, ptr %9, align 8, !tbaa !41
  %171 = getelementptr inbounds nuw %"struct.(anonymous namespace)::pj_opaque", ptr %170, i32 0, i32 5
  %172 = load double, ptr %171, align 8, !tbaa !59
  %173 = fmul double %169, %172
  %174 = fneg double %173
  %175 = call double @llvm.fmuladd.f64(double %163, double %166, double %174)
  %176 = fmul double 3.000000e+00, %175
  %177 = load ptr, ptr %9, align 8, !tbaa !41
  %178 = getelementptr inbounds nuw %"struct.(anonymous namespace)::pj_opaque", ptr %177, i32 0, i32 6
  store double %176, ptr %178, align 8, !tbaa !61
  %179 = load ptr, ptr %9, align 8, !tbaa !41
  %180 = getelementptr inbounds nuw %"struct.(anonymous namespace)::pj_opaque", ptr %179, i32 0, i32 4
  %181 = load double, ptr %180, align 8, !tbaa !60
  %182 = fmul double 6.000000e+00, %181
  %183 = load ptr, ptr %9, align 8, !tbaa !41
  %184 = getelementptr inbounds nuw %"struct.(anonymous namespace)::pj_opaque", ptr %183, i32 0, i32 5
  %185 = load double, ptr %184, align 8, !tbaa !59
  %186 = fmul double %182, %185
  %187 = load ptr, ptr %9, align 8, !tbaa !41
  %188 = getelementptr inbounds nuw %"struct.(anonymous namespace)::pj_opaque", ptr %187, i32 0, i32 7
  store double %186, ptr %188, align 8, !tbaa !62
  %189 = load ptr, ptr %3, align 8, !tbaa !3
  %190 = getelementptr inbounds nuw %struct.PJconsts, ptr %189, i32 0, i32 14
  store ptr @_ZL15labrd_e_inverse5PJ_XYP8PJconsts, ptr %190, align 8, !tbaa !63
  %191 = load ptr, ptr %3, align 8, !tbaa !3
  %192 = getelementptr inbounds nuw %struct.PJconsts, ptr %191, i32 0, i32 13
  store ptr @_ZL15labrd_e_forward5PJ_LPP8PJconsts, ptr %192, align 8, !tbaa !64
  %193 = load ptr, ptr %3, align 8, !tbaa !3
  store ptr %193, ptr %2, align 8
  store i32 1, ptr %10, align 4
  br label %194

194:                                              ; preds = %30, %26, %15
  call void @llvm.lifetime.end.p0(i64 8, ptr %9) #8
  call void @llvm.lifetime.end.p0(i64 8, ptr %8) #8
  call void @llvm.lifetime.end.p0(i64 8, ptr %7) #8
  call void @llvm.lifetime.end.p0(i64 8, ptr %6) #8
  call void @llvm.lifetime.end.p0(i64 8, ptr %5) #8
  call void @llvm.lifetime.end.p0(i64 8, ptr %4) #8
  %195 = load ptr, ptr %2, align 8
  ret ptr %195
}