; Function Attrs: mustprogress uwtable
define hidden noundef ptr @_Z34pj_projection_specific_setup_labrdP8PJconsts(ptr noundef %0) local_unnamed_addr #0 {
  %2 = tail call noalias dereferenceable_or_null(64) ptr @calloc(i64 noundef 1, i64 noundef 64) #7
  %3 = icmp eq ptr %2, null
  br i1 %3, label %4, label %6

4:                                                ; preds = %1
  %5 = tail call noundef ptr @_Z21pj_default_destructorP8PJconstsi(ptr noundef %0, i32 noundef 4096)
  br label %87

6:                                                ; preds = %1
  %7 = getelementptr inbounds nuw i8, ptr %0, i64 88
  store ptr %2, ptr %7, align 8, !tbaa !40
  %8 = getelementptr inbounds nuw i8, ptr %0, i64 448
  %9 = load double, ptr %8, align 8, !tbaa !41
  %10 = fcmp oeq double %9, 0.000000e+00
  br i1 %10, label %11, label %13

11:                                               ; preds = %6
  tail call void (ptr, ptr, ...) @_Z14proj_log_errorPK8PJconstsPKcz(ptr noundef nonnull %0, ptr noundef nonnull @.str.1)
  %12 = tail call noundef ptr @_Z21pj_default_destructorP8PJconstsi(ptr noundef nonnull %0, i32 noundef 1027)
  br label %87

13:                                               ; preds = %6
  %14 = load ptr, ptr %0, align 8, !tbaa !42
  %15 = getelementptr inbounds nuw i8, ptr %0, i64 24
  %16 = load ptr, ptr %15, align 8, !tbaa !43
  %17 = tail call i64 @_Z8pj_paramP6pj_ctxP8ARG_listPKc(ptr noundef %14, ptr noundef %16, ptr noundef nonnull @.str.2)
  %18 = bitcast i64 %17 to double
  %19 = load double, ptr %8, align 8, !tbaa !41
  %20 = tail call double @sin(double noundef %19) #8, !tbaa !44
  %21 = getelementptr inbounds nuw i8, ptr %0, i64 216
  %22 = load double, ptr %21, align 8, !tbaa !45
  %23 = fneg double %20
  %24 = fmul double %22, %23
  %25 = tail call double @llvm.fmuladd.f64(double %24, double %20, double 1.000000e+00)
  %26 = tail call double @sqrt(double noundef %25) #8, !tbaa !44
  %27 = fdiv double 1.000000e+00, %26
  %28 = getelementptr inbounds nuw i8, ptr %0, i64 256
  %29 = load double, ptr %28, align 8, !tbaa !46
  %30 = fmul double %29, %27
  %31 = fdiv double %30, %25
  %32 = getelementptr inbounds nuw i8, ptr %0, i64 488
  %33 = load double, ptr %32, align 8, !tbaa !47
  %34 = fmul double %27, %31
  %35 = tail call double @sqrt(double noundef %34) #8, !tbaa !44
  %36 = fmul double %33, %35
  store double %36, ptr %2, align 8, !tbaa !48
  %37 = fdiv double %31, %27
  %38 = tail call double @sqrt(double noundef %37) #8, !tbaa !44
  %39 = tail call double @tan(double noundef %19) #8, !tbaa !44
  %40 = fmul double %38, %39
  %41 = tail call double @atan(double noundef %40) #8, !tbaa !44
  %42 = getelementptr inbounds nuw i8, ptr %2, i64 8
  store double %41, ptr %42, align 8, !tbaa !50
  %43 = tail call double @sin(double noundef %41) #8, !tbaa !44
  %44 = fdiv double %20, %43
  %45 = getelementptr inbounds nuw i8, ptr %2, i64 16
  store double %44, ptr %45, align 8, !tbaa !51
  %46 = getelementptr inbounds nuw i8, ptr %0, i64 208
  %47 = load double, ptr %46, align 8, !tbaa !52
  %48 = fmul double %20, %47
  %49 = fmul double %47, 5.000000e-01
  %50 = fmul double %44, %49
  %51 = fadd double %48, 1.000000e+00
  %52 = fsub double 1.000000e+00, %48
  %53 = fdiv double %51, %52
  %54 = tail call double @log(double noundef %53) #8, !tbaa !44
  %55 = fneg double %44
  %56 = tail call double @llvm.fmuladd.f64(double %19, double 5.000000e-01, double 0x3FE921FB54442D18)
  %57 = tail call double @tan(double noundef %56) #8, !tbaa !44
  %58 = tail call double @log(double noundef %57) #8, !tbaa !44
  %59 = fmul double %58, %55
  %60 = tail call double @llvm.fmuladd.f64(double %50, double %54, double %59)
  %61 = tail call double @llvm.fmuladd.f64(double %41, double 5.000000e-01, double 0x3FE921FB54442D18)
  %62 = tail call double @tan(double noundef %61) #8, !tbaa !44
  %63 = tail call double @log(double noundef %62) #8, !tbaa !44
  %64 = fadd double %60, %63
  %65 = getelementptr inbounds nuw i8, ptr %2, i64 24
  store double %64, ptr %65, align 8, !tbaa !53
  %66 = fadd double %18, %18
  %67 = fmul double %36, 1.200000e+01
  %68 = fmul double %36, %67
  %69 = fdiv double 1.000000e+00, %68
  %70 = getelementptr inbounds nuw i8, ptr %2, i64 40
  %71 = tail call double @cos(double noundef %66) #8, !tbaa !44
  %72 = fsub double 1.000000e+00, %71
  %73 = fmul double %69, %72
  %74 = getelementptr inbounds nuw i8, ptr %2, i64 32
  store double %73, ptr %74, align 8, !tbaa !54
  %75 = tail call double @sin(double noundef %66) #8, !tbaa !44
  %76 = fmul double %69, %75
  store double %76, ptr %70, align 8, !tbaa !55
  %77 = fneg double %76
  %78 = fmul double %76, %77
  %79 = tail call double @llvm.fmuladd.f64(double %73, double %73, double %78)
  %80 = fmul double %79, 3.000000e+00
  %81 = getelementptr inbounds nuw i8, ptr %2, i64 48
  store double %80, ptr %81, align 8, !tbaa !56
  %82 = fmul double %73, 6.000000e+00
  %83 = fmul double %82, %76
  %84 = getelementptr inbounds nuw i8, ptr %2, i64 56
  store double %83, ptr %84, align 8, !tbaa !57
  %85 = getelementptr inbounds nuw i8, ptr %0, i64 112
  store ptr @_ZL15labrd_e_inverse5PJ_XYP8PJconsts, ptr %85, align 8, !tbaa !58
  %86 = getelementptr inbounds nuw i8, ptr %0, i64 104
  store ptr @_ZL15labrd_e_forward5PJ_LPP8PJconsts, ptr %86, align 8, !tbaa !59
  br label %87

87:                                               ; preds = %13, %11, %4
  %.0 = phi ptr [ %5, %4 ], [ %12, %11 ], [ %0, %13 ]
  ret ptr %.0
}